target datalayout = "e-m:e-p270:32:32-p271:32:32-p272:64:64-i64:64-i128:128-f80:128-n8:16:32:64-S128"
target triple = "x86_64-unknown-linux-gnu"

%struct.BdrvDirtyBitmap = type { ptr, ptr, i8, ptr, ptr, i64, i8, i32, i8, i8, i8, i8, %struct.anon }
%struct.anon = type { ptr, ptr }

@.str.1 = private unnamed_addr constant [29 x i8] c"../qemu/block/dirty-bitmap.c\00", align 1
@__func__.bdrv_dirty_bitmap_check = private unnamed_addr constant [24 x i8] c"bdrv_dirty_bitmap_check\00", align 1
@.str.6 = private unnamed_addr constant [72 x i8] c"Bitmap '%s' is currently in use by another operation and cannot be used\00", align 1
@.str.7 = private unnamed_addr constant [47 x i8] c"Bitmap '%s' is readonly and cannot be modified\00", align 1
@.str.8 = private unnamed_addr constant [47 x i8] c"Bitmap '%s' is inconsistent and cannot be used\00", align 1
@.str.9 = private unnamed_addr constant [63 x i8] c"Try block-dirty-bitmap-remove to delete this bitmap from disk\0A\00", align 1

; Function Attrs: nounwind sspstrong uwtable
define dso_local zeroext i1 @bdrv_dirty_bitmap_inconsistent(ptr noundef %bitmap) #0 {
entry:
  %bitmap.addr = alloca ptr, align 8
  store ptr %bitmap, ptr %bitmap.addr, align 8
  %0 = load ptr, ptr %bitmap.addr, align 8
  %inconsistent = getelementptr inbounds %struct.BdrvDirtyBitmap, ptr %0, i32 0, i32 10
  %1 = load i8, ptr %inconsistent, align 2
  %tobool = trunc i8 %1 to i1
  ret i1 %tobool
}

; Function Attrs: nounwind sspstrong uwtable
define dso_local zeroext i1 @bdrv_dirty_bitmap_readonly(ptr noundef %bitmap) #0 {
entry:
  %bitmap.addr = alloca ptr, align 8
  store ptr %bitmap, ptr %bitmap.addr, align 8
  %0 = load ptr, ptr %bitmap.addr, align 8
  %readonly = getelementptr inbounds %struct.BdrvDirtyBitmap, ptr %0, i32 0, i32 8
  %1 = load i8, ptr %readonly, align 8
  %tobool = trunc i8 %1 to i1
  ret i1 %tobool
}

; Function Attrs: nounwind sspstrong uwtable
define internal zeroext i1 @bdrv_dirty_bitmap_busy(ptr noundef %bitmap) #0 {
entry:
  %bitmap.addr = alloca ptr, align 8
  store ptr %bitmap, ptr %bitmap.addr, align 8
  %0 = load ptr, ptr %bitmap.addr, align 8
  %busy = getelementptr inbounds %struct.BdrvDirtyBitmap, ptr %0, i32 0, i32 2
  %1 = load i8, ptr %busy, align 8
  %tobool = trunc i8 %1 to i1
  ret i1 %tobool
}

; Function Attrs: nounwind sspstrong uwtable
define dso_local i32 @bdrv_dirty_bitmap_check(ptr noundef %bitmap, i32 noundef %flags, ptr noundef %errp) #0 {
entry:
  %retval = alloca i32, align 4
  %bitmap.addr = alloca ptr, align 8
  %flags.addr = alloca i32, align 4
  %errp.addr = alloca ptr, align 8
  store ptr %bitmap, ptr %bitmap.addr, align 8
  store i32 %flags, ptr %flags.addr, align 4
  store ptr %errp, ptr %errp.addr, align 8
  %0 = load i32, ptr %flags.addr, align 4
  %and = and i32 %0, 1
  %tobool = icmp ne i32 %and, 0
  br i1 %tobool, label %land.lhs.true, label %if.end

land.lhs.true:                                    ; preds = %entry
  %1 = load ptr, ptr %bitmap.addr, align 8
  %call = call zeroext i1 @bdrv_dirty_bitmap_busy(ptr noundef %1)
  br i1 %call, label %if.then, label %if.end

if.then:                                          ; preds = %land.lhs.true
  %2 = load ptr, ptr %errp.addr, align 8
  %3 = load ptr, ptr %bitmap.addr, align 8
  %name = getelementptr inbounds %struct.BdrvDirtyBitmap, ptr %3, i32 0, i32 4
  %4 = load ptr, ptr %name, align 8
  call void (ptr, ptr, i32, ptr, ptr, ...) @error_setg_internal(ptr noundef %2, ptr noundef @.str.1, i32 noundef 183, ptr noundef @__func__.bdrv_dirty_bitmap_check, ptr noundef @.str.6, ptr noundef %4)
  store i32 -1, ptr %retval, align 4
  br label %return

if.end:                                           ; preds = %land.lhs.true, %entry
  %5 = load i32, ptr %flags.addr, align 4
  %and1 = and i32 %5, 2
  %tobool2 = icmp ne i32 %and1, 0
  br i1 %tobool2, label %land.lhs.true3, label %if.end7

land.lhs.true3:                                   ; preds = %if.end
  %6 = load ptr, ptr %bitmap.addr, align 8
  %call4 = call zeroext i1 @bdrv_dirty_bitmap_readonly(ptr noundef %6)
  br i1 %call4, label %if.then5, label %if.end7

if.then5:                                         ; preds = %land.lhs.true3
  %7 = load ptr, ptr %errp.addr, align 8
  %8 = load ptr, ptr %bitmap.addr, align 8
  %name6 = getelementptr inbounds %struct.BdrvDirtyBitmap, ptr %8, i32 0, i32 4
  %9 = load ptr, ptr %name6, align 8
  call void (ptr, ptr, i32, ptr, ptr, ...) @error_setg_internal(ptr noundef %7, ptr noundef @.str.1, i32 noundef 189, ptr noundef @__func__.bdrv_dirty_bitmap_check, ptr noundef @.str.7, ptr noundef %9)
  store i32 -1, ptr %retval, align 4
  br label %return

if.end7:                                          ; preds = %land.lhs.true3, %if.end
  %10 = load i32, ptr %flags.addr, align 4
  %and8 = and i32 %10, 4
  %tobool9 = icmp ne i32 %and8, 0
  br i1 %tobool9, label %land.lhs.true10, label %if.end14

land.lhs.true10:                                  ; preds = %if.end7
  %11 = load ptr, ptr %bitmap.addr, align 8
  %call11 = call zeroext i1 @bdrv_dirty_bitmap_inconsistent(ptr noundef %11)
  br i1 %call11, label %if.then12, label %if.end14

if.then12:                                        ; preds = %land.lhs.true10
  %12 = load ptr, ptr %errp.addr, align 8
  %13 = load ptr, ptr %bitmap.addr, align 8
  %name13 = getelementptr inbounds %struct.BdrvDirtyBitmap, ptr %13, i32 0, i32 4
  %14 = load ptr, ptr %name13, align 8
  call void (ptr, ptr, i32, ptr, ptr, ...) @error_setg_internal(ptr noundef %12, ptr noundef @.str.1, i32 noundef 196, ptr noundef @__func__.bdrv_dirty_bitmap_check, ptr noundef @.str.8, ptr noundef %14)
  %15 = load ptr, ptr %errp.addr, align 8
  call void (ptr, ptr, ...) @error_append_hint(ptr noundef %15, ptr noundef @.str.9)
  store i32 -1, ptr %retval, align 4
  br label %return

if.end14:                                         ; preds = %land.lhs.true10, %if.end7
  store i32 0, ptr %retval, align 4
  br label %return

return:                                           ; preds = %if.end14, %if.then12, %if.then5, %if.then
  %16 = load i32, ptr %retval, align 4
  ret i32 %16
}