; Function Attrs: nounwind sspstrong uwtable
define dso_local range(i32 -1, 1) i32 @bdrv_dirty_bitmap_check(ptr noundef readonly captures(none) %bitmap, i32 noundef %flags, ptr noundef %errp) local_unnamed_addr #0 {
entry:
  %and = and i32 %flags, 1
  %tobool.not = icmp eq i32 %and, 0
  br i1 %tobool.not, label %if.end, label %land.lhs.true

land.lhs.true:                                    ; preds = %entry
  %0 = getelementptr i8, ptr %bitmap, i64 16
  %bitmap.val = load i8, ptr %0, align 8
  %tobool.i = trunc i8 %bitmap.val to i1
  br i1 %tobool.i, label %if.then, label %if.end

if.then:                                          ; preds = %land.lhs.true
  %name = getelementptr inbounds nuw i8, ptr %bitmap, i64 32
  %1 = load ptr, ptr %name, align 8
  tail call void (ptr, ptr, i32, ptr, ptr, ...) @error_setg_internal(ptr noundef %errp, ptr noundef nonnull @.str.1, i32 noundef 183, ptr noundef nonnull @__func__.bdrv_dirty_bitmap_check, ptr noundef nonnull @.str.6, ptr noundef %1) #14
  br label %return

if.end:                                           ; preds = %land.lhs.true, %entry
  %and1 = and i32 %flags, 2
  %tobool2.not = icmp eq i32 %and1, 0
  br i1 %tobool2.not, label %if.end7, label %land.lhs.true3

land.lhs.true3:                                   ; preds = %if.end
  %readonly.i = getelementptr inbounds nuw i8, ptr %bitmap, i64 56
  %2 = load i8, ptr %readonly.i, align 8
  %tobool.i11 = trunc i8 %2 to i1
  br i1 %tobool.i11, label %if.then5, label %if.end7

if.then5:                                         ; preds = %land.lhs.true3
  %name6 = getelementptr inbounds nuw i8, ptr %bitmap, i64 32
  %3 = load ptr, ptr %name6, align 8
  tail call void (ptr, ptr, i32, ptr, ptr, ...) @error_setg_internal(ptr noundef %errp, ptr noundef nonnull @.str.1, i32 noundef 189, ptr noundef nonnull @__func__.bdrv_dirty_bitmap_check, ptr noundef nonnull @.str.7, ptr noundef %3) #14
  br label %return

if.end7:                                          ; preds = %land.lhs.true3, %if.end
  %and8 = and i32 %flags, 4
  %tobool9.not = icmp eq i32 %and8, 0
  br i1 %tobool9.not, label %return, label %land.lhs.true10

land.lhs.true10:                                  ; preds = %if.end7
  %inconsistent.i = getelementptr inbounds nuw i8, ptr %bitmap, i64 58
  %4 = load i8, ptr %inconsistent.i, align 2
  %tobool.i12 = trunc i8 %4 to i1
  br i1 %tobool.i12, label %if.then12, label %return

if.then12:                                        ; preds = %land.lhs.true10
  %name13 = getelementptr inbounds nuw i8, ptr %bitmap, i64 32
  %5 = load ptr, ptr %name13, align 8
  tail call void (ptr, ptr, i32, ptr, ptr, ...) @error_setg_internal(ptr noundef %errp, ptr noundef nonnull @.str.1, i32 noundef 196, ptr noundef nonnull @__func__.bdrv_dirty_bitmap_check, ptr noundef nonnull @.str.8, ptr noundef %5) #14
  tail call void (ptr, ptr, ...) @error_append_hint(ptr noundef %errp, ptr noundef nonnull @.str.9) #14
  br label %return

return:                                           ; preds = %if.end7, %land.lhs.true10, %if.then12, %if.then5, %if.then
  %retval.0 = phi i32 [ -1, %if.then ], [ -1, %if.then5 ], [ -1, %if.then12 ], [ 0, %land.lhs.true10 ], [ 0, %if.end7 ]
  ret i32 %retval.0
}